target datalayout = "e-m:e-p270:32:32-p271:32:32-p272:64:64-i64:64-i128:128-f80:128-n8:16:32:64-S128"
target triple = "x86_64-pc-linux-gnu"

%struct.WalSndCtlData = type { [3 x %struct.dlist_head], [3 x i64], i8, %struct.ConditionVariable, %struct.ConditionVariable, %struct.ConditionVariable, [0 x %struct.WalSnd] }
%struct.dlist_head = type { %struct.dlist_node }
%struct.dlist_node = type { ptr, ptr }
%struct.ConditionVariable = type { i8, %struct.proclist_head }
%struct.proclist_head = type { i32, i32 }
%struct.WalSnd = type { i32, i32, i64, i8, i64, i64, i64, i64, i64, i64, i32, i8, i64, i32 }
%struct.SyncRepConfigData = type { i32, i32, i8, i32, [0 x i8] }
%struct.SyncRepStandbyData = type { i32, i64, i64, i64, i32, i32, i8 }

@SyncRepConfig = dso_local global ptr null, align 8
@max_wal_senders = external global i32, align 4
@WalSndCtl = external global ptr, align 8
@.str.3 = private unnamed_addr constant [10 x i8] c"syncrep.c\00", align 1
@MyWalSnd = external global ptr, align 8
@__func__.SyncRepGetCandidateStandbys = private unnamed_addr constant [28 x i8] c"SyncRepGetCandidateStandbys\00", align 1

; Function Attrs: inlinehint nounwind uwtable
define internal i32 @tas(ptr noundef %0) #4 {
  %2 = alloca ptr, align 8
  %3 = alloca i8, align 1
  store ptr %0, ptr %2, align 8
  call void @llvm.lifetime.start.p0(i64 1, ptr %3) #8
  store i8 1, ptr %3, align 1
  %4 = load i8, ptr %3, align 1
  %5 = load ptr, ptr %2, align 8
  %6 = call i8 asm sideeffect "\09lock\09\09\09\0A\09xchgb\09$0,$1\09\0A", "=q,=*m,0,*m,~{memory},~{cc},~{dirflag},~{fpsr},~{flags}"(ptr elementtype(i8) %5, i8 %4, ptr elementtype(i8) %5) #8, !srcloc !11
  store i8 %6, ptr %3, align 1
  %7 = load i8, ptr %3, align 1
  %8 = zext i8 %7 to i32
  call void @llvm.lifetime.end.p0(i64 1, ptr %3) #8
  ret i32 %8
}

; Function Attrs: nounwind uwtable
define dso_local i32 @SyncRepGetCandidateStandbys(ptr noundef %0) #0 {
  %2 = alloca i32, align 4
  %3 = alloca ptr, align 8
  %4 = alloca i32, align 4
  %5 = alloca i32, align 4
  %6 = alloca i32, align 4
  %7 = alloca ptr, align 8
  %8 = alloca ptr, align 8
  %9 = alloca i32, align 4
  store ptr %0, ptr %3, align 8
  call void @llvm.lifetime.start.p0(i64 4, ptr %4) #8
  call void @llvm.lifetime.start.p0(i64 4, ptr %5) #8
  %10 = load i32, ptr @max_wal_senders, align 4
  %11 = sext i32 %10 to i64
  %12 = mul i64 %11, 48
  %13 = call ptr @palloc(i64 noundef %12)
  %14 = load ptr, ptr %3, align 8
  store ptr %13, ptr %14, align 8
  %15 = load ptr, ptr @SyncRepConfig, align 8
  %16 = icmp eq ptr %15, null
  br i1 %16, label %17, label %18

17:                                               ; preds = %1
  store i32 0, ptr %2, align 4
  store i32 1, ptr %6, align 4
  br label %141

18:                                               ; preds = %1
  store i32 0, ptr %5, align 4
  store i32 0, ptr %4, align 4
  br label %19

19:                                               ; preds = %116, %18
  %20 = load i32, ptr %4, align 4
  %21 = load i32, ptr @max_wal_senders, align 4
  %22 = icmp slt i32 %20, %21
  br i1 %22, label %23, label %119

23:                                               ; preds = %19
  call void @llvm.lifetime.start.p0(i64 8, ptr %7) #8
  call void @llvm.lifetime.start.p0(i64 8, ptr %8) #8
  call void @llvm.lifetime.start.p0(i64 4, ptr %9) #8
  %24 = load ptr, ptr @WalSndCtl, align 8
  %25 = getelementptr inbounds nuw %struct.WalSndCtlData, ptr %24, i32 0, i32 6
  %26 = load i32, ptr %4, align 4
  %27 = sext i32 %26 to i64
  %28 = getelementptr inbounds [0 x %struct.WalSnd], ptr %25, i64 0, i64 %27
  store ptr %28, ptr %7, align 8
  %29 = load ptr, ptr %3, align 8
  %30 = load ptr, ptr %29, align 8
  %31 = load i32, ptr %5, align 4
  %32 = sext i32 %31 to i64
  %33 = getelementptr inbounds %struct.SyncRepStandbyData, ptr %30, i64 %32
  store ptr %33, ptr %8, align 8
  %34 = load ptr, ptr %7, align 8
  %35 = getelementptr inbounds nuw %struct.WalSnd, ptr %34, i32 0, i32 11
  %36 = call i32 @tas(ptr noundef %35)
  %37 = icmp ne i32 %36, 0
  br i1 %37, label %38, label %42

38:                                               ; preds = %23
  %39 = load ptr, ptr %7, align 8
  %40 = getelementptr inbounds nuw %struct.WalSnd, ptr %39, i32 0, i32 11
  %41 = call i32 @s_lock(ptr noundef %40, ptr noundef @.str.3, i32 noundef 736, ptr noundef @__func__.SyncRepGetCandidateStandbys)
  br label %43

42:                                               ; preds = %23
  br label %43

43:                                               ; preds = %42, %38
  %44 = load ptr, ptr %7, align 8
  %45 = getelementptr inbounds nuw %struct.WalSnd, ptr %44, i32 0, i32 0
  %46 = load volatile i32, ptr %45, align 8
  %47 = load ptr, ptr %8, align 8
  %48 = getelementptr inbounds nuw %struct.SyncRepStandbyData, ptr %47, i32 0, i32 0
  store i32 %46, ptr %48, align 8
  %49 = load ptr, ptr %7, align 8
  %50 = getelementptr inbounds nuw %struct.WalSnd, ptr %49, i32 0, i32 1
  %51 = load volatile i32, ptr %50, align 4
  store i32 %51, ptr %9, align 4
  %52 = load ptr, ptr %7, align 8
  %53 = getelementptr inbounds nuw %struct.WalSnd, ptr %52, i32 0, i32 4
  %54 = load volatile i64, ptr %53, align 8
  %55 = load ptr, ptr %8, align 8
  %56 = getelementptr inbounds nuw %struct.SyncRepStandbyData, ptr %55, i32 0, i32 1
  store i64 %54, ptr %56, align 8
  %57 = load ptr, ptr %7, align 8
  %58 = getelementptr inbounds nuw %struct.WalSnd, ptr %57, i32 0, i32 5
  %59 = load volatile i64, ptr %58, align 8
  %60 = load ptr, ptr %8, align 8
  %61 = getelementptr inbounds nuw %struct.SyncRepStandbyData, ptr %60, i32 0, i32 2
  store i64 %59, ptr %61, align 8
  %62 = load ptr, ptr %7, align 8
  %63 = getelementptr inbounds nuw %struct.WalSnd, ptr %62, i32 0, i32 6
  %64 = load volatile i64, ptr %63, align 8
  %65 = load ptr, ptr %8, align 8
  %66 = getelementptr inbounds nuw %struct.SyncRepStandbyData, ptr %65, i32 0, i32 3
  store i64 %64, ptr %66, align 8
  %67 = load ptr, ptr %7, align 8
  %68 = getelementptr inbounds nuw %struct.WalSnd, ptr %67, i32 0, i32 10
  %69 = load volatile i32, ptr %68, align 8
  %70 = load ptr, ptr %8, align 8
  %71 = getelementptr inbounds nuw %struct.SyncRepStandbyData, ptr %70, i32 0, i32 4
  store i32 %69, ptr %71, align 8
  br label %72

72:                                               ; preds = %43
  call void asm sideeffect "", "~{memory},~{dirflag},~{fpsr},~{flags}"() #8, !srcloc !15
  %73 = load ptr, ptr %7, align 8
  %74 = getelementptr inbounds nuw %struct.WalSnd, ptr %73, i32 0, i32 11
  store volatile i8 0, ptr %74, align 4
  br label %75

75:                                               ; preds = %72
  br label %76

76:                                               ; preds = %75
  %77 = load ptr, ptr %8, align 8
  %78 = getelementptr inbounds nuw %struct.SyncRepStandbyData, ptr %77, i32 0, i32 0
  %79 = load i32, ptr %78, align 8
  %80 = icmp eq i32 %79, 0
  br i1 %80, label %81, label %82

81:                                               ; preds = %76
  store i32 4, ptr %6, align 4
  br label %113

82:                                               ; preds = %76
  %83 = load i32, ptr %9, align 4
  %84 = icmp ne i32 %83, 3
  br i1 %84, label %85, label %89

85:                                               ; preds = %82
  %86 = load i32, ptr %9, align 4
  %87 = icmp ne i32 %86, 4
  br i1 %87, label %88, label %89

88:                                               ; preds = %85
  store i32 4, ptr %6, align 4
  br label %113

89:                                               ; preds = %85, %82
  %90 = load ptr, ptr %8, align 8
  %91 = getelementptr inbounds nuw %struct.SyncRepStandbyData, ptr %90, i32 0, i32 4
  %92 = load i32, ptr %91, align 8
  %93 = icmp eq i32 %92, 0
  br i1 %93, label %94, label %95

94:                                               ; preds = %89
  store i32 4, ptr %6, align 4
  br label %113

95:                                               ; preds = %89
  %96 = load ptr, ptr %8, align 8
  %97 = getelementptr inbounds nuw %struct.SyncRepStandbyData, ptr %96, i32 0, i32 2
  %98 = load i64, ptr %97, align 8
  %99 = icmp eq i64 %98, 0
  br i1 %99, label %100, label %101

100:                                              ; preds = %95
  store i32 4, ptr %6, align 4
  br label %113

101:                                              ; preds = %95
  %102 = load i32, ptr %4, align 4
  %103 = load ptr, ptr %8, align 8
  %104 = getelementptr inbounds nuw %struct.SyncRepStandbyData, ptr %103, i32 0, i32 5
  store i32 %102, ptr %104, align 4
  %105 = load ptr, ptr %7, align 8
  %106 = load ptr, ptr @MyWalSnd, align 8
  %107 = icmp eq ptr %105, %106
  %108 = load ptr, ptr %8, align 8
  %109 = getelementptr inbounds nuw %struct.SyncRepStandbyData, ptr %108, i32 0, i32 6
  %110 = zext i1 %107 to i8
  store i8 %110, ptr %109, align 8
  %111 = load i32, ptr %5, align 4
  %112 = add i32 %111, 1
  store i32 %112, ptr %5, align 4
  store i32 0, ptr %6, align 4
  br label %113

113:                                              ; preds = %101, %100, %94, %88, %81
  call void @llvm.lifetime.end.p0(i64 4, ptr %9) #8
  call void @llvm.lifetime.end.p0(i64 8, ptr %8) #8
  call void @llvm.lifetime.end.p0(i64 8, ptr %7) #8
  %114 = load i32, ptr %6, align 4
  switch i32 %114, label %143 [
    i32 0, label %115
    i32 4, label %116
  ]

115:                                              ; preds = %113
  br label %116

116:                                              ; preds = %115, %113
  %117 = load i32, ptr %4, align 4
  %118 = add i32 %117, 1
  store i32 %118, ptr %4, align 4
  br label %19, !llvm.loop !16

119:                                              ; preds = %19
  %120 = load ptr, ptr @SyncRepConfig, align 8
  %121 = getelementptr inbounds nuw %struct.SyncRepConfigData, ptr %120, i32 0, i32 2
  %122 = load i8, ptr %121, align 4
  %123 = zext i8 %122 to i32
  %124 = icmp eq i32 %123, 0
  br i1 %124, label %125, label %139

125:                                              ; preds = %119
  %126 = load i32, ptr %5, align 4
  %127 = load ptr, ptr @SyncRepConfig, align 8
  %128 = getelementptr inbounds nuw %struct.SyncRepConfigData, ptr %127, i32 0, i32 1
  %129 = load i32, ptr %128, align 4
  %130 = icmp sgt i32 %126, %129
  br i1 %130, label %131, label %139

131:                                              ; preds = %125
  %132 = load ptr, ptr %3, align 8
  %133 = load ptr, ptr %132, align 8
  %134 = load i32, ptr %5, align 4
  %135 = sext i32 %134 to i64
  call void @pg_qsort(ptr noundef %133, i64 noundef %135, i64 noundef 48, ptr noundef @standby_priority_comparator)
  %136 = load ptr, ptr @SyncRepConfig, align 8
  %137 = getelementptr inbounds nuw %struct.SyncRepConfigData, ptr %136, i32 0, i32 1
  %138 = load i32, ptr %137, align 4
  store i32 %138, ptr %5, align 4
  br label %139

139:                                              ; preds = %131, %125, %119
  %140 = load i32, ptr %5, align 4
  store i32 %140, ptr %2, align 4
  store i32 1, ptr %6, align 4
  br label %141

141:                                              ; preds = %139, %17
  call void @llvm.lifetime.end.p0(i64 4, ptr %5) #8
  call void @llvm.lifetime.end.p0(i64 4, ptr %4) #8
  %142 = load i32, ptr %2, align 4
  ret i32 %142

143:                                              ; preds = %113
  unreachable
}