; Function Attrs: nounwind uwtable
define dso_local i32 @SyncRepGetCandidateStandbys(ptr noundef captures(none) initializes((0, 8)) %0) local_unnamed_addr #0 {
  %2 = load i32, ptr @max_wal_senders, align 4
  %3 = sext i32 %2 to i64
  %4 = mul nsw i64 %3, 48
  %5 = tail call ptr @palloc(i64 noundef %4) #10
  store ptr %5, ptr %0, align 8
  %6 = load ptr, ptr @SyncRepConfig, align 8
  %7 = icmp eq ptr %6, null
  br i1 %7, label %71, label %.preheader

.preheader:                                       ; preds = %1
  %8 = load i32, ptr @max_wal_senders, align 4
  %9 = icmp sgt i32 %8, 0
  br i1 %9, label %.lr.ph, label %._crit_edge

.lr.ph:                                           ; preds = %.preheader, %53
  %indvars.iv = phi i64 [ %indvars.iv.next, %53 ], [ 0, %.preheader ]
  %.03638 = phi i32 [ %.1, %53 ], [ 0, %.preheader ]
  %10 = load ptr, ptr @WalSndCtl, align 8
  %11 = getelementptr inbounds nuw i8, ptr %10, i64 112
  %12 = getelementptr inbounds nuw [0 x %struct.WalSnd], ptr %11, i64 0, i64 %indvars.iv
  %13 = load ptr, ptr %0, align 8
  %14 = sext i32 %.03638 to i64
  %15 = getelementptr inbounds %struct.SyncRepStandbyData, ptr %13, i64 %14
  %16 = getelementptr inbounds nuw i8, ptr %12, i64 76
  %17 = tail call i8 asm sideeffect "\09lock\09\09\09\0A\09xchgb\09$0,$1\09\0A", "=q,=*m,0,*m,~{memory},~{cc},~{dirflag},~{fpsr},~{flags}"(ptr nonnull elementtype(i8) %16, i8 1, ptr nonnull elementtype(i8) %16) #10, !srcloc !10
  %.not = icmp eq i8 %17, 0
  br i1 %.not, label %20, label %18

18:                                               ; preds = %.lr.ph
  %19 = tail call i32 @s_lock(ptr noundef nonnull %16, ptr noundef nonnull @.str.3, i32 noundef 736, ptr noundef nonnull @__func__.SyncRepGetCandidateStandbys) #10
  br label %20

20:                                               ; preds = %.lr.ph, %18
  %21 = load volatile i32, ptr %12, align 8
  store i32 %21, ptr %15, align 8
  %22 = getelementptr inbounds nuw i8, ptr %12, i64 4
  %23 = load volatile i32, ptr %22, align 4
  %24 = getelementptr inbounds nuw i8, ptr %12, i64 24
  %25 = load volatile i64, ptr %24, align 8
  %26 = getelementptr inbounds nuw i8, ptr %15, i64 8
  store i64 %25, ptr %26, align 8
  %27 = getelementptr inbounds nuw i8, ptr %12, i64 32
  %28 = load volatile i64, ptr %27, align 8
  %29 = getelementptr inbounds nuw i8, ptr %15, i64 16
  store i64 %28, ptr %29, align 8
  %30 = getelementptr inbounds nuw i8, ptr %12, i64 40
  %31 = load volatile i64, ptr %30, align 8
  %32 = getelementptr inbounds nuw i8, ptr %15, i64 24
  store i64 %31, ptr %32, align 8
  %33 = getelementptr inbounds nuw i8, ptr %12, i64 72
  %34 = load volatile i32, ptr %33, align 8
  %35 = getelementptr inbounds nuw i8, ptr %15, i64 32
  store i32 %34, ptr %35, align 8
  tail call void asm sideeffect "", "~{memory},~{dirflag},~{fpsr},~{flags}"() #10, !srcloc !17
  store volatile i8 0, ptr %16, align 4
  %36 = load i32, ptr %15, align 8
  %37 = icmp eq i32 %36, 0
  %38 = add i32 %23, -5
  %or.cond = icmp ult i32 %38, -2
  %or.cond37 = select i1 %37, i1 true, i1 %or.cond
  br i1 %or.cond37, label %53, label %39

39:                                               ; preds = %20
  %40 = load i32, ptr %35, align 8
  %41 = icmp eq i32 %40, 0
  br i1 %41, label %53, label %42

42:                                               ; preds = %39
  %43 = load i64, ptr %29, align 8
  %44 = icmp eq i64 %43, 0
  br i1 %44, label %53, label %45

45:                                               ; preds = %42
  %46 = getelementptr inbounds nuw i8, ptr %15, i64 36
  %47 = trunc nuw nsw i64 %indvars.iv to i32
  store i32 %47, ptr %46, align 4
  %48 = load ptr, ptr @MyWalSnd, align 8
  %49 = icmp eq ptr %12, %48
  %50 = getelementptr inbounds nuw i8, ptr %15, i64 40
  %51 = zext i1 %49 to i8
  store i8 %51, ptr %50, align 8
  %52 = add i32 %.03638, 1
  br label %53

53:                                               ; preds = %42, %39, %20, %45
  %.1 = phi i32 [ %52, %45 ], [ %.03638, %20 ], [ %.03638, %39 ], [ %.03638, %42 ]
  %indvars.iv.next = add nuw nsw i64 %indvars.iv, 1
  %54 = load i32, ptr @max_wal_senders, align 4
  %55 = sext i32 %54 to i64
  %56 = icmp slt i64 %indvars.iv.next, %55
  br i1 %56, label %.lr.ph, label %._crit_edge.loopexit, !llvm.loop !18

._crit_edge.loopexit:                             ; preds = %53
  %.pre = load ptr, ptr @SyncRepConfig, align 8
  br label %._crit_edge

._crit_edge:                                      ; preds = %._crit_edge.loopexit, %.preheader
  %57 = phi ptr [ %6, %.preheader ], [ %.pre, %._crit_edge.loopexit ]
  %.036.lcssa = phi i32 [ 0, %.preheader ], [ %.1, %._crit_edge.loopexit ]
  %58 = getelementptr inbounds nuw i8, ptr %57, i64 8
  %59 = load i8, ptr %58, align 4
  %60 = icmp eq i8 %59, 0
  br i1 %60, label %61, label %71

61:                                               ; preds = %._crit_edge
  %62 = getelementptr inbounds nuw i8, ptr %57, i64 4
  %63 = load i32, ptr %62, align 4
  %64 = icmp sgt i32 %.036.lcssa, %63
  br i1 %64, label %65, label %71

65:                                               ; preds = %61
  %66 = load ptr, ptr %0, align 8
  %67 = sext i32 %.036.lcssa to i64
  tail call void @pg_qsort(ptr noundef %66, i64 noundef %67, i64 noundef 48, ptr noundef nonnull @standby_priority_comparator) #10
  %68 = load ptr, ptr @SyncRepConfig, align 8
  %69 = getelementptr inbounds nuw i8, ptr %68, i64 4
  %70 = load i32, ptr %69, align 4
  br label %71

71:                                               ; preds = %._crit_edge, %61, %65, %1
  %.0 = phi i32 [ 0, %1 ], [ %70, %65 ], [ %.036.lcssa, %61 ], [ %.036.lcssa, %._crit_edge ]
  ret i32 %.0
}